target datalayout = "e-m:e-p270:32:32-p271:32:32-p272:64:64-i64:64-i128:128-f80:128-n8:16:32:64-S128"
target triple = "x86_64-pc-linux-gnu"

@.str.3 = private unnamed_addr constant [2 x i8] c"\0A\00", align 1
@.str.4 = private unnamed_addr constant [34 x i8] c"    opt_mem_priority [selection]\0A\00", align 1
@.str.5 = private unnamed_addr constant [79 x i8] c"This pass detects cases where one memory write port has priority over another\0A\00", align 1
@.str.6 = private unnamed_addr constant [78 x i8] c"even though they can never collide with each other -- ie. there can never be\0A\00", align 1
@.str.7 = private unnamed_addr constant [75 x i8] c"a situation where a given memory bit is written by both ports at the same\0A\00", align 1
@.str.8 = private unnamed_addr constant [80 x i8] c"time, for example because of always-different addresses, or mutually exclusive\0A\00", align 1
@.str.9 = private unnamed_addr constant [66 x i8] c"enable signals. In such cases, the priority relation is removed.\0A\00", align 1

; Function Attrs: mustprogress uwtable
define internal void @_ZN12_GLOBAL__N_118OptMemPriorityPass4helpEv(ptr noundef nonnull align 8 dereferenceable(104) %0) unnamed_addr #4 align 2 {
  %2 = alloca ptr, align 8
  store ptr %0, ptr %2, align 8
  call void (ptr, ...) @_ZN5Yosys3logEPKcz(ptr noundef @.str.3)
  call void (ptr, ...) @_ZN5Yosys3logEPKcz(ptr noundef @.str.4)
  call void (ptr, ...) @_ZN5Yosys3logEPKcz(ptr noundef @.str.3)
  call void (ptr, ...) @_ZN5Yosys3logEPKcz(ptr noundef @.str.5)
  call void (ptr, ...) @_ZN5Yosys3logEPKcz(ptr noundef @.str.6)
  call void (ptr, ...) @_ZN5Yosys3logEPKcz(ptr noundef @.str.7)
  call void (ptr, ...) @_ZN5Yosys3logEPKcz(ptr noundef @.str.8)
  call void (ptr, ...) @_ZN5Yosys3logEPKcz(ptr noundef @.str.9)
  call void (ptr, ...) @_ZN5Yosys3logEPKcz(ptr noundef @.str.3)
  ret void
}